; Function Attrs: mustprogress uwtable
define noundef i32 @_ZN5arrow7compute9Hashing3215HashVarLen_avx2EbjPKjPKhPjS6_(i1 noundef zeroext %combine_hashes, i32 noundef %num_rows, ptr noundef %offsets, ptr noundef %concatenated_keys, ptr noundef %hashes, ptr noundef %hashes_temp_for_combine) local_unnamed_addr #1 align 2 {
entry:
  br i1 %combine_hashes, label %if.then, label %if.else

if.then:                                          ; preds = %entry
  %call = tail call noundef i32 @_ZN5arrow7compute9Hashing3218HashVarLenImp_avx2IjLb1EEEjjPKT_PKhPjS8_(i32 noundef %num_rows, ptr noundef %offsets, ptr noundef %concatenated_keys, ptr noundef %hashes, ptr noundef %hashes_temp_for_combine)
  br label %return

if.else:                                          ; preds = %entry
  %call1 = tail call noundef i32 @_ZN5arrow7compute9Hashing3218HashVarLenImp_avx2IjLb0EEEjjPKT_PKhPjS8_(i32 noundef %num_rows, ptr noundef %offsets, ptr noundef %concatenated_keys, ptr noundef %hashes, ptr noundef %hashes_temp_for_combine)
  br label %return

return:                                           ; preds = %if.else, %if.then
  %retval.0 = phi i32 [ %call, %if.then ], [ %call1, %if.else ]
  ret i32 %retval.0
}